target datalayout = "e-m:e-p270:32:32-p271:32:32-p272:64:64-i64:64-i128:128-f80:128-n8:16:32:64-S128"
target triple = "x86_64-pc-linux-gnu"

%struct.ArrayType = type { i32, i32, i32, i32 }

; Function Attrs: nounwind uwtable
define dso_local zeroext i1 @array_contains_nulls(ptr noundef %0) #0 {
  %2 = alloca i1, align 1
  %3 = alloca ptr, align 8
  %4 = alloca i32, align 4
  %5 = alloca ptr, align 8
  %6 = alloca i32, align 4
  %7 = alloca i32, align 4
  store ptr %0, ptr %3, align 8
  call void @llvm.lifetime.start.p0(i64 4, ptr %4) #11
  call void @llvm.lifetime.start.p0(i64 8, ptr %5) #11
  call void @llvm.lifetime.start.p0(i64 4, ptr %6) #11
  %8 = load ptr, ptr %3, align 8
  %9 = getelementptr inbounds nuw %struct.ArrayType, ptr %8, i32 0, i32 2
  %10 = load i32, ptr %9, align 4
  %11 = icmp ne i32 %10, 0
  br i1 %11, label %13, label %12

12:                                               ; preds = %1
  store i1 false, ptr %2, align 1
  store i32 1, ptr %7, align 4
  br label %68

13:                                               ; preds = %1
  %14 = load ptr, ptr %3, align 8
  %15 = getelementptr inbounds nuw %struct.ArrayType, ptr %14, i32 0, i32 1
  %16 = load i32, ptr %15, align 4
  %17 = load ptr, ptr %3, align 8
  %18 = getelementptr inbounds nuw i8, ptr %17, i64 16
  %19 = call i32 @ArrayGetNItems(i32 noundef %16, ptr noundef %18)
  store i32 %19, ptr %4, align 4
  %20 = load ptr, ptr %3, align 8
  %21 = getelementptr inbounds nuw %struct.ArrayType, ptr %20, i32 0, i32 2
  %22 = load i32, ptr %21, align 4
  %23 = icmp ne i32 %22, 0
  br i1 %23, label %24, label %33

24:                                               ; preds = %13
  %25 = load ptr, ptr %3, align 8
  %26 = getelementptr inbounds nuw i8, ptr %25, i64 16
  %27 = load ptr, ptr %3, align 8
  %28 = getelementptr inbounds nuw %struct.ArrayType, ptr %27, i32 0, i32 1
  %29 = load i32, ptr %28, align 4
  %30 = sext i32 %29 to i64
  %31 = mul i64 8, %30
  %32 = getelementptr inbounds nuw i8, ptr %26, i64 %31
  br label %34

33:                                               ; preds = %13
  br label %34

34:                                               ; preds = %33, %24
  %35 = phi ptr [ %32, %24 ], [ null, %33 ]
  store ptr %35, ptr %5, align 8
  br label %36

36:                                               ; preds = %45, %34
  %37 = load i32, ptr %4, align 4
  %38 = icmp sge i32 %37, 8
  br i1 %38, label %39, label %50

39:                                               ; preds = %36
  %40 = load ptr, ptr %5, align 8
  %41 = load i8, ptr %40, align 1
  %42 = zext i8 %41 to i32
  %43 = icmp ne i32 %42, 255
  br i1 %43, label %44, label %45

44:                                               ; preds = %39
  store i1 true, ptr %2, align 1
  store i32 1, ptr %7, align 4
  br label %68

45:                                               ; preds = %39
  %46 = load ptr, ptr %5, align 8
  %47 = getelementptr inbounds nuw i8, ptr %46, i32 1
  store ptr %47, ptr %5, align 8
  %48 = load i32, ptr %4, align 4
  %49 = sub i32 %48, 8
  store i32 %49, ptr %4, align 4
  br label %36, !llvm.loop !59

50:                                               ; preds = %36
  store i32 1, ptr %6, align 4
  br label %51

51:                                               ; preds = %62, %50
  %52 = load i32, ptr %4, align 4
  %53 = icmp sgt i32 %52, 0
  br i1 %53, label %54, label %67

54:                                               ; preds = %51
  %55 = load ptr, ptr %5, align 8
  %56 = load i8, ptr %55, align 1
  %57 = zext i8 %56 to i32
  %58 = load i32, ptr %6, align 4
  %59 = and i32 %57, %58
  %60 = icmp eq i32 %59, 0
  br i1 %60, label %61, label %62

61:                                               ; preds = %54
  store i1 true, ptr %2, align 1
  store i32 1, ptr %7, align 4
  br label %68

62:                                               ; preds = %54
  %63 = load i32, ptr %6, align 4
  %64 = shl i32 %63, 1
  store i32 %64, ptr %6, align 4
  %65 = load i32, ptr %4, align 4
  %66 = add i32 %65, -1
  store i32 %66, ptr %4, align 4
  br label %51, !llvm.loop !60

67:                                               ; preds = %51
  store i1 false, ptr %2, align 1
  store i32 1, ptr %7, align 4
  br label %68

68:                                               ; preds = %67, %61, %44, %12
  call void @llvm.lifetime.end.p0(i64 4, ptr %6) #11
  call void @llvm.lifetime.end.p0(i64 8, ptr %5) #11
  call void @llvm.lifetime.end.p0(i64 4, ptr %4) #11
  %69 = load i1, ptr %2, align 1
  ret i1 %69
}