; Function Attrs: nounwind uwtable
define dso_local noundef zeroext i1 @array_contains_nulls(ptr noundef %0) local_unnamed_addr #0 {
  %2 = getelementptr inbounds nuw i8, ptr %0, i64 8
  %3 = load i32, ptr %2, align 4
  %.not = icmp eq i32 %3, 0
  br i1 %.not, label %.loopexit, label %4

4:                                                ; preds = %1
  %5 = getelementptr inbounds nuw i8, ptr %0, i64 4
  %6 = load i32, ptr %5, align 4
  %7 = getelementptr inbounds nuw i8, ptr %0, i64 16
  %8 = tail call i32 @ArrayGetNItems(i32 noundef %6, ptr noundef nonnull %7) #18
  %9 = load i32, ptr %2, align 4
  %.not18 = icmp eq i32 %9, 0
  br i1 %.not18, label %15, label %10

10:                                               ; preds = %4
  %11 = load i32, ptr %5, align 4
  %12 = sext i32 %11 to i64
  %13 = shl nsw i64 %12, 3
  %14 = getelementptr inbounds nuw i8, ptr %7, i64 %13
  br label %15

15:                                               ; preds = %4, %10
  %16 = phi ptr [ %14, %10 ], [ null, %4 ]
  %17 = icmp sgt i32 %8, 7
  br i1 %17, label %.lr.ph, label %.preheader

.preheader:                                       ; preds = %22, %15
  %.016.lcssa = phi i32 [ %8, %15 ], [ %24, %22 ]
  %.015.lcssa = phi ptr [ %16, %15 ], [ %23, %22 ]
  %18 = icmp sgt i32 %.016.lcssa, 0
  br i1 %18, label %.lr.ph28, label %.loopexit

.lr.ph28:                                         ; preds = %.preheader
  %19 = load i8, ptr %.015.lcssa, align 1
  %20 = zext i8 %19 to i32
  br label %26

.lr.ph:                                           ; preds = %15, %22
  %.01524 = phi ptr [ %23, %22 ], [ %16, %15 ]
  %.01623 = phi i32 [ %24, %22 ], [ %8, %15 ]
  %21 = load i8, ptr %.01524, align 1
  %.not19 = icmp eq i8 %21, -1
  br i1 %.not19, label %22, label %.loopexit

22:                                               ; preds = %.lr.ph
  %23 = getelementptr inbounds nuw i8, ptr %.01524, i64 1
  %24 = add nsw i32 %.01623, -8
  %25 = icmp samesign ugt i32 %.01623, 15
  br i1 %25, label %.lr.ph, label %.preheader, !llvm.loop !74

26:                                               ; preds = %.lr.ph28, %29
  %.027 = phi i32 [ 1, %.lr.ph28 ], [ %30, %29 ]
  %.126 = phi i32 [ %.016.lcssa, %.lr.ph28 ], [ %31, %29 ]
  %27 = and i32 %.027, %20
  %28 = icmp eq i32 %27, 0
  br i1 %28, label %.loopexit, label %29

29:                                               ; preds = %26
  %30 = shl i32 %.027, 1
  %31 = add nsw i32 %.126, -1
  %32 = icmp sgt i32 %.126, 1
  br i1 %32, label %26, label %.loopexit, !llvm.loop !75

.loopexit:                                        ; preds = %.lr.ph, %26, %29, %.preheader, %1
  %.017 = phi i1 [ false, %1 ], [ false, %.preheader ], [ %28, %29 ], [ %28, %26 ], [ true, %.lr.ph ]
  ret i1 %.017
}